target datalayout = "e-m:e-p270:32:32-p271:32:32-p272:64:64-i64:64-i128:128-f80:128-n8:16:32:64-S128"
target triple = "x86_64-pc-linux-gnu"

; Function Attrs: inlinehint nounwind uwtable
define internal i64 @to_ssize_t(i64 noundef %0) #4 {
  %2 = alloca i64, align 8
  store i64 %0, ptr %2, align 8, !tbaa !9
  %3 = load i64, ptr %2, align 8, !tbaa !9
  %4 = icmp ule i64 %3, 9223372036854775807
  br i1 %4, label %5, label %7

5:                                                ; preds = %1
  %6 = load i64, ptr %2, align 8, !tbaa !9
  br label %8

7:                                                ; preds = %1
  br label %8

8:                                                ; preds = %7, %5
  %9 = phi i64 [ %6, %5 ], [ 0, %7 ]
  ret i64 %9
}

; Function Attrs: nounwind uwtable
define internal i64 @ic_strlen(ptr noundef %0) #0 {
  %2 = alloca i64, align 8
  %3 = alloca ptr, align 8
  store ptr %0, ptr %3, align 8, !tbaa !11
  %4 = load ptr, ptr %3, align 8, !tbaa !11
  %5 = icmp eq ptr %4, null
  br i1 %5, label %6, label %7

6:                                                ; preds = %1
  store i64 0, ptr %2, align 8
  br label %11

7:                                                ; preds = %1
  %8 = load ptr, ptr %3, align 8, !tbaa !11
  %9 = call i64 @strlen(ptr noundef %8) #14
  %10 = call i64 @to_ssize_t(i64 noundef %9)
  store i64 %10, ptr %2, align 8
  br label %11

11:                                               ; preds = %7, %6
  %12 = load i64, ptr %2, align 8
  ret i64 %12
}

; Function Attrs: nounwind uwtable
define dso_local i64 @ic_is_token(ptr noundef %0, i64 noundef %1, ptr noundef %2) #0 {
  %4 = alloca i64, align 8
  %5 = alloca ptr, align 8
  %6 = alloca i64, align 8
  %7 = alloca ptr, align 8
  %8 = alloca i64, align 8
  %9 = alloca i32, align 4
  %10 = alloca i64, align 8
  %11 = alloca i64, align 8
  store ptr %0, ptr %5, align 8, !tbaa !11
  store i64 %1, ptr %6, align 8, !tbaa !9
  store ptr %2, ptr %7, align 8, !tbaa !51
  %12 = load ptr, ptr %5, align 8, !tbaa !11
  %13 = icmp eq ptr %12, null
  br i1 %13, label %20, label %14

14:                                               ; preds = %3
  %15 = load i64, ptr %6, align 8, !tbaa !9
  %16 = icmp slt i64 %15, 0
  br i1 %16, label %20, label %17

17:                                               ; preds = %14
  %18 = load ptr, ptr %7, align 8, !tbaa !51
  %19 = icmp eq ptr %18, null
  br i1 %19, label %20, label %21

20:                                               ; preds = %17, %14, %3
  store i64 -1, ptr %4, align 8
  br label %74

21:                                               ; preds = %17
  call void @llvm.lifetime.start.p0(i64 8, ptr %8) #13
  %22 = load ptr, ptr %5, align 8, !tbaa !11
  %23 = call i64 @ic_strlen(ptr noundef %22)
  store i64 %23, ptr %8, align 8, !tbaa !9
  %24 = load i64, ptr %6, align 8, !tbaa !9
  %25 = load i64, ptr %8, align 8, !tbaa !9
  %26 = icmp sge i64 %24, %25
  br i1 %26, label %27, label %28

27:                                               ; preds = %21
  store i64 -1, ptr %4, align 8
  store i32 1, ptr %9, align 4
  br label %73

28:                                               ; preds = %21
  %29 = load i64, ptr %6, align 8, !tbaa !9
  %30 = icmp sgt i64 %29, 0
  br i1 %30, label %31, label %39

31:                                               ; preds = %28
  %32 = load ptr, ptr %7, align 8, !tbaa !51
  %33 = load ptr, ptr %5, align 8, !tbaa !11
  %34 = load i64, ptr %6, align 8, !tbaa !9
  %35 = getelementptr inbounds i8, ptr %33, i64 %34
  %36 = getelementptr inbounds i8, ptr %35, i64 -1
  %37 = call zeroext i1 %32(ptr noundef %36, i64 noundef 1)
  br i1 %37, label %38, label %39

38:                                               ; preds = %31
  store i64 -1, ptr %4, align 8
  store i32 1, ptr %9, align 4
  br label %73

39:                                               ; preds = %31, %28
  call void @llvm.lifetime.start.p0(i64 8, ptr %10) #13
  %40 = load i64, ptr %6, align 8, !tbaa !9
  store i64 %40, ptr %10, align 8, !tbaa !9
  br label %41

41:                                               ; preds = %67, %39
  %42 = load i64, ptr %10, align 8, !tbaa !9
  %43 = load i64, ptr %8, align 8, !tbaa !9
  %44 = icmp slt i64 %42, %43
  br i1 %44, label %45, label %68

45:                                               ; preds = %41
  call void @llvm.lifetime.start.p0(i64 8, ptr %11) #13
  %46 = load ptr, ptr %5, align 8, !tbaa !11
  %47 = load i64, ptr %8, align 8, !tbaa !9
  %48 = load i64, ptr %10, align 8, !tbaa !9
  %49 = call i64 @str_next_ofs(ptr noundef %46, i64 noundef %47, i64 noundef %48, ptr noundef null)
  store i64 %49, ptr %11, align 8, !tbaa !9
  %50 = load i64, ptr %11, align 8, !tbaa !9
  %51 = icmp sle i64 %50, 0
  br i1 %51, label %52, label %53

52:                                               ; preds = %45
  store i64 -1, ptr %4, align 8
  store i32 1, ptr %9, align 4
  br label %65

53:                                               ; preds = %45
  %54 = load ptr, ptr %7, align 8, !tbaa !51
  %55 = load ptr, ptr %5, align 8, !tbaa !11
  %56 = load i64, ptr %10, align 8, !tbaa !9
  %57 = getelementptr inbounds i8, ptr %55, i64 %56
  %58 = load i64, ptr %11, align 8, !tbaa !9
  %59 = call zeroext i1 %54(ptr noundef %57, i64 noundef %58)
  br i1 %59, label %61, label %60

60:                                               ; preds = %53
  store i32 3, ptr %9, align 4
  br label %65

61:                                               ; preds = %53
  %62 = load i64, ptr %11, align 8, !tbaa !9
  %63 = load i64, ptr %10, align 8, !tbaa !9
  %64 = add nsw i64 %63, %62
  store i64 %64, ptr %10, align 8, !tbaa !9
  store i32 0, ptr %9, align 4
  br label %65

65:                                               ; preds = %61, %60, %52
  call void @llvm.lifetime.end.p0(i64 8, ptr %11) #13
  %66 = load i32, ptr %9, align 4
  switch i32 %66, label %72 [
    i32 0, label %67
    i32 3, label %68
  ]

67:                                               ; preds = %65
  br label %41, !llvm.loop !120

68:                                               ; preds = %65, %41
  %69 = load i64, ptr %10, align 8, !tbaa !9
  %70 = load i64, ptr %6, align 8, !tbaa !9
  %71 = sub nsw i64 %69, %70
  store i64 %71, ptr %4, align 8
  store i32 1, ptr %9, align 4
  br label %72

72:                                               ; preds = %68, %65
  call void @llvm.lifetime.end.p0(i64 8, ptr %10) #13
  br label %73

73:                                               ; preds = %72, %38, %27
  call void @llvm.lifetime.end.p0(i64 8, ptr %8) #13
  br label %74

74:                                               ; preds = %73, %20
  %75 = load i64, ptr %4, align 8
  ret i64 %75
}