; Function Attrs: nounwind uwtable
define dso_local i64 @ic_is_token(ptr noundef %0, i64 noundef %1, ptr noundef readonly %2) local_unnamed_addr #0 {
  %4 = icmp eq ptr %0, null
  %5 = icmp slt i64 %1, 0
  %or.cond = or i1 %4, %5
  %6 = icmp eq ptr %2, null
  %or.cond3 = or i1 %or.cond, %6
  br i1 %or.cond3, label %.thread, label %ic_strlen.exit

ic_strlen.exit:                                   ; preds = %3
  %7 = tail call i64 @strlen(ptr noundef nonnull readonly dereferenceable(1) %0) #33
  %8 = tail call noundef range(i64 0, -9223372036854775808) i64 @llvm.smax.i64(i64 %7, i64 0)
  %.not = icmp sgt i64 %7, %1
  br i1 %.not, label %9, label %.thread

9:                                                ; preds = %ic_strlen.exit
  %.not44 = icmp eq i64 %1, 0
  br i1 %.not44, label %.preheader, label %10

10:                                               ; preds = %9
  %11 = getelementptr inbounds nuw i8, ptr %0, i64 %1
  %12 = getelementptr inbounds i8, ptr %11, i64 -1
  %13 = tail call zeroext i1 %2(ptr noundef nonnull %12, i64 noundef 1) #32
  br i1 %13, label %.thread, label %.preheader

.preheader:                                       ; preds = %10, %9
  br label %14

14:                                               ; preds = %.preheader, %19
  %.029 = phi i64 [ %22, %19 ], [ %1, %.preheader ]
  %15 = icmp slt i64 %.029, %8
  br i1 %15, label %16, label %.thread41

16:                                               ; preds = %14
  %17 = tail call fastcc i64 @str_next_ofs(ptr noundef nonnull %0, i64 noundef %8, i64 noundef %.029, ptr noundef null)
  %18 = icmp slt i64 %17, 1
  br i1 %18, label %.thread, label %19

19:                                               ; preds = %16
  %20 = getelementptr inbounds nuw i8, ptr %0, i64 %.029
  %21 = tail call zeroext i1 %2(ptr noundef nonnull %20, i64 noundef %17) #32
  %22 = add nuw nsw i64 %17, %.029
  br i1 %21, label %14, label %.thread41

.thread41:                                        ; preds = %19, %14
  %23 = sub nsw i64 %.029, %1
  br label %.thread

.thread:                                          ; preds = %16, %ic_strlen.exit, %10, %.thread41, %3
  %.0 = phi i64 [ -1, %3 ], [ -1, %ic_strlen.exit ], [ -1, %10 ], [ %23, %.thread41 ], [ -1, %16 ]
  ret i64 %.0
}